; Function Attrs: mustprogress uwtable
define dso_local void @_ZN10cmPolicies26GetPolicyDeprecatedWarningB5cxx11ENS_8PolicyIDE(ptr dead_on_unwind noalias writable sret(%"class.std::__cxx11::basic_string") align 8 %0, i32 noundef %1) local_unnamed_addr #4 align 2 personality ptr @__gxx_personality_v0 {
  %3 = alloca [3 x %"struct.std::pair"], align 8
  %4 = tail call fastcc noundef ptr @_ZL10idToStringN10cmPolicies8PolicyIDE(i32 noundef %1)
  call void @llvm.lifetime.start.p0(i64 72, ptr nonnull %3) #23, !noalias !158
  store i64 28, ptr %3, align 8, !tbaa !17, !alias.scope !161, !noalias !158
  %.sroa.4.0..sroa_idx.i.i = getelementptr inbounds nuw i8, ptr %3, i64 8
  store ptr @.str.18, ptr %.sroa.4.0..sroa_idx.i.i, align 8, !tbaa !21, !alias.scope !161, !noalias !158
  %5 = getelementptr inbounds nuw i8, ptr %3, i64 16
  store ptr null, ptr %5, align 8, !tbaa !22, !alias.scope !161, !noalias !158
  %.not.i.i = icmp eq ptr %4, null
  br i1 %.not.i.i, label %_Z8cmStrCatIRA29_KcPS0_JRA314_S0_EENSt7__cxx1112basic_stringIcSt11char_traitsIcESaIcEEEOT_OT0_DpOT1_.exit, label %6

6:                                                ; preds = %2
  %7 = tail call noundef i64 @strlen(ptr noundef nonnull dereferenceable(1) %4) #23, !noalias !158
  br label %_Z8cmStrCatIRA29_KcPS0_JRA314_S0_EENSt7__cxx1112basic_stringIcSt11char_traitsIcESaIcEEEOT_OT0_DpOT1_.exit

_Z8cmStrCatIRA29_KcPS0_JRA314_S0_EENSt7__cxx1112basic_stringIcSt11char_traitsIcESaIcEEEOT_OT0_DpOT1_.exit: ; preds = %2, %6
  %.sroa.423.0.i = phi i64 [ %7, %6 ], [ 0, %2 ]
  %8 = getelementptr inbounds nuw i8, ptr %3, i64 24
  store i64 %.sroa.423.0.i, ptr %8, align 8, !tbaa !17, !alias.scope !164, !noalias !158
  %.sroa.4.0..sroa_idx.i10.i = getelementptr inbounds nuw i8, ptr %3, i64 32
  store ptr %4, ptr %.sroa.4.0..sroa_idx.i10.i, align 8, !tbaa !21, !alias.scope !164, !noalias !158
  %9 = getelementptr inbounds nuw i8, ptr %3, i64 40
  store ptr null, ptr %9, align 8, !tbaa !22, !alias.scope !164, !noalias !158
  %10 = getelementptr inbounds nuw i8, ptr %3, i64 48
  store i64 313, ptr %10, align 8, !tbaa !17, !alias.scope !167, !noalias !158
  %.sroa.4.0..sroa_idx.i19.i = getelementptr inbounds nuw i8, ptr %3, i64 56
  store ptr @.str.19, ptr %.sroa.4.0..sroa_idx.i19.i, align 8, !tbaa !21, !alias.scope !167, !noalias !158
  %11 = getelementptr inbounds nuw i8, ptr %3, i64 64
  store ptr null, ptr %11, align 8, !tbaa !22, !alias.scope !167, !noalias !158
  call void @_Z10cmCatViewsSt16initializer_listISt4pairISt17basic_string_viewIcSt11char_traitsIcEEPNSt7__cxx1112basic_stringIcS3_SaIcEEEEE(ptr dead_on_unwind writable sret(%"class.std::__cxx11::basic_string") align 8 %0, ptr nonnull %3, i64 3)
  call void @llvm.lifetime.end.p0(i64 72, ptr nonnull %3) #23, !noalias !158
  ret void
}